target datalayout = "e-m:e-p270:32:32-p271:32:32-p272:64:64-i64:64-i128:128-f80:128-n8:16:32:64-S128"
target triple = "x86_64-pc-linux-gnu"

@.str.1544 = private unnamed_addr constant [3 x i8] c"%s\00", align 1
@.str.1547 = private unnamed_addr constant [25 x i8] c"Wait for upgrade command\00", align 1

; Function Attrs: null_pointer_is_valid sspstrong uwtable
define internal void @decode_zcl_ota_upgr_time_utc(ptr noundef %0, i32 noundef %1) #0 {
  %3 = alloca ptr, align 8
  %4 = alloca i32, align 4
  %5 = alloca ptr, align 8
  store ptr %0, ptr %3, align 8
  store i32 %1, ptr %4, align 4
  %6 = load i32, ptr %4, align 4
  %7 = icmp eq i32 %6, -1
  br i1 %7, label %8, label %13

8:                                                ; preds = %2
  %9 = load ptr, ptr %3, align 8
  %10 = load ptr, ptr %3, align 8
  %11 = call i64 @llvm.objectsize.i64.p0(ptr %10, i1 false, i1 true, i1 true)
  %12 = call i32 (ptr, i64, i32, i64, ptr, ...) @__snprintf_chk(ptr noundef %9, i64 noundef 240, i32 noundef 2, i64 noundef %11, ptr noundef @.str.1547)
  br label %25

13:                                               ; preds = %2
  call void @llvm.lifetime.start.p0(i64 8, ptr %5) #7
  %14 = load i32, ptr %4, align 4
  %15 = add i32 %14, 946684800
  store i32 %15, ptr %4, align 4
  %16 = load i32, ptr %4, align 4
  %17 = zext i32 %16 to i64
  %18 = call ptr @abs_time_secs_to_str_ex(ptr noundef null, i64 noundef %17, i32 noundef 18, i32 noundef 1)
  store ptr %18, ptr %5, align 8
  %19 = load ptr, ptr %3, align 8
  %20 = load ptr, ptr %3, align 8
  %21 = call i64 @llvm.objectsize.i64.p0(ptr %20, i1 false, i1 true, i1 true)
  %22 = load ptr, ptr %5, align 8
  %23 = call i32 (ptr, i64, i32, i64, ptr, ...) @__snprintf_chk(ptr noundef %19, i64 noundef 240, i32 noundef 2, i64 noundef %21, ptr noundef @.str.1544, ptr noundef %22)
  %24 = load ptr, ptr %5, align 8
  call void @wmem_free(ptr noundef null, ptr noundef %24)
  call void @llvm.lifetime.end.p0(i64 8, ptr %5) #7
  br label %25

25:                                               ; preds = %13, %8
  ret void
}