; Function Attrs: null_pointer_is_valid sspstrong uwtable
define internal void @decode_zcl_ota_upgr_time_utc(ptr noundef %0, i32 noundef %1) #0 {
  %3 = icmp eq i32 %1, -1
  br i1 %3, label %4, label %6

4:                                                ; preds = %2
  %5 = tail call i32 (ptr, i64, i32, i64, ptr, ...) @__snprintf_chk(ptr noundef %0, i64 noundef 240, i32 noundef 2, i64 noundef -1, ptr noundef nonnull @.str.1547)
  br label %11

6:                                                ; preds = %2
  %7 = add i32 %1, 946684800
  %8 = zext i32 %7 to i64
  %9 = tail call ptr @abs_time_secs_to_str_ex(ptr noundef null, i64 noundef %8, i32 noundef 18, i32 noundef 1)
  %10 = tail call i32 (ptr, i64, i32, i64, ptr, ...) @__snprintf_chk(ptr noundef %0, i64 noundef 240, i32 noundef 2, i64 noundef -1, ptr noundef nonnull @.str.1544, ptr noundef %9)
  tail call void @wmem_free(ptr noundef null, ptr noundef %9)
  br label %11

11:                                               ; preds = %6, %4
  ret void
}